	.file	"main.c"
	.text
	.section	.rodata
.LC0:
	.string	"%d %d %d %d %d %d\n"
	.text
	.globl	main
	.type	main, @function
main:
.LFB0:
	.cfi_startproc
	endbr32
	leal	4(%esp), %ecx
	.cfi_def_cfa 1, 0
	andl	$-16, %esp
	pushl	-4(%ecx)
	pushl	%ebp
	movl	%esp, %ebp
	.cfi_escape 0x10,0x5,0x2,0x75,0
	pushl	%edi
	pushl	%esi
	pushl	%ebx
	pushl	%ecx
	.cfi_escape 0xf,0x3,0x75,0x70,0x6
	.cfi_escape 0x10,0x7,0x2,0x75,0x7c
	.cfi_escape 0x10,0x6,0x2,0x75,0x78
	.cfi_escape 0x10,0x3,0x2,0x75,0x74
	subl	$24, %esp
	call	__x86.get_pc_thunk.dx
	addl	$_GLOBAL_OFFSET_TABLE_, %edx
	movl	$10, %ebx
	movl	$20, %esi
	movl	$30, %edi
	movl	$40, -28(%ebp)
	movl	$50, %ecx
	movl	$60, %eax
	subl	$4, %esp
	pushl	%eax
	pushl	%ecx
	pushl	-28(%ebp)
	pushl	%edi
	pushl	%esi
	pushl	%ebx
	leal	.LC0@GOTOFF(%edx), %eax
	pushl	%eax
	movl	%edx, %ebx
	call	printf@PLT
	addl	$32, %esp
	call	fun
	movl	$0, %eax
	leal	-16(%ebp), %esp
	popl	%ecx
	.cfi_restore 1
	.cfi_def_cfa 1, 0
	popl	%ebx
	.cfi_restore 3
	popl	%esi
	.cfi_restore 6
	popl	%edi
	.cfi_restore 7
	popl	%ebp
	.cfi_restore 5
	leal	-4(%ecx), %esp
	.cfi_def_cfa 4, 4
	ret
	.cfi_endproc
.LFE0:
	.size	main, .-main
	.section	.rodata
.LC1:
	.string	"%d\n"
	.text
	.globl	fun
	.type	fun, @function
fun:
.LFB1:
	.cfi_startproc
	endbr32
	pushl	%ebp
	.cfi_def_cfa_offset 8
	.cfi_offset 5, -8
	movl	%esp, %ebp
	.cfi_def_cfa_register 5
	pushl	%ebx
	subl	$4, %esp
	.cfi_offset 3, -12
	call	__x86.get_pc_thunk.ax
	addl	$_GLOBAL_OFFSET_TABLE_, %eax
	movl	$70, %ebx
	subl	$8, %esp
	pushl	%ebx
	leal	.LC1@GOTOFF(%eax), %edx
	pushl	%edx
	movl	%eax, %ebx
	call	printf@PLT
	addl	$16, %esp
	nop
	movl	-4(%ebp), %ebx
	leave
	.cfi_restore 5
	.cfi_restore 3
	.cfi_def_cfa 4, 4
	ret
	.cfi_endproc
.LFE1:
	.size	fun, .-fun
	.section	.text.__x86.get_pc_thunk.ax,"axG",@progbits,__x86.get_pc_thunk.ax,comdat
	.globl	__x86.get_pc_thunk.ax
	.hidden	__x86.get_pc_thunk.ax
	.type	__x86.get_pc_thunk.ax, @function
__x86.get_pc_thunk.ax:
.LFB2:
	.cfi_startproc
	movl	(%esp), %eax
	ret
	.cfi_endproc
.LFE2:
	.section	.text.__x86.get_pc_thunk.dx,"axG",@progbits,__x86.get_pc_thunk.dx,comdat
	.globl	__x86.get_pc_thunk.dx
	.hidden	__x86.get_pc_thunk.dx
	.type	__x86.get_pc_thunk.dx, @function
__x86.get_pc_thunk.dx:
.LFB3:
	.cfi_startproc
	movl	(%esp), %edx
	ret
	.cfi_endproc
.LFE3:
	.ident	"GCC: (Ubuntu 9.4.0-1ubuntu1~20.04.2) 9.4.0"
	.section	.note.GNU-stack,"",@progbits
	.section	.note.gnu.property,"a"
	.align 4
	.long	 1f - 0f
	.long	 4f - 1f
	.long	 5
0:
	.string	 "GNU"
1:
	.align 4
	.long	 0xc0000002
	.long	 3f - 2f
2:
	.long	 0x3
3:
	.align 4
4:
